target datalayout = "e-m:e-p270:32:32-p271:32:32-p272:64:64-i64:64-i128:128-f80:128-n8:16:32:64-S128"
target triple = "x86_64-unknown-linux-gnu"

%"class.OpenColorIO_v2_4dev::DisplayViewTransform" = type { %"class.OpenColorIO_v2_4dev::Transform", ptr }
%"class.OpenColorIO_v2_4dev::Transform" = type { ptr }
%"class.OpenColorIO_v2_4dev::DisplayViewTransform::Impl" = type <{ i32, [4 x i8], %"class.std::__cxx11::basic_string", %"class.std::__cxx11::basic_string", %"class.std::__cxx11::basic_string", i8, i8, [6 x i8] }>
%"class.std::__cxx11::basic_string" = type { %"struct.std::__cxx11::basic_string<char>::_Alloc_hider", i64, %union.anon }
%"struct.std::__cxx11::basic_string<char>::_Alloc_hider" = type { ptr }
%union.anon = type { i64, [8 x i8] }
%"class.std::allocator" = type { i8 }

@_ZTIN19OpenColorIO_v2_4dev9ExceptionE = external constant ptr
@.str = private unnamed_addr constant [41 x i8] c"DisplayViewTransform validation failed: \00", align 1
@.str.1 = private unnamed_addr constant [53 x i8] c"DisplayViewTransform: empty source color space name.\00", align 1
@.str.2 = private unnamed_addr constant [42 x i8] c"DisplayViewTransform: empty display name.\00", align 1
@.str.3 = private unnamed_addr constant [39 x i8] c"DisplayViewTransform: empty view name.\00", align 1

; Function Attrs: mustprogress nounwind uwtable
define linkonce_odr hidden noundef ptr @_ZNK19OpenColorIO_v2_4dev20DisplayViewTransform7getImplEv(ptr noundef nonnull align 8 dereferenceable(16) %this) #3 comdat align 2 {
entry:
  %this.addr = alloca ptr, align 8
  store ptr %this, ptr %this.addr, align 8
  %this1 = load ptr, ptr %this.addr, align 8
  %m_impl = getelementptr inbounds %"class.OpenColorIO_v2_4dev::DisplayViewTransform", ptr %this1, i32 0, i32 1
  %0 = load ptr, ptr %m_impl, align 8
  ret ptr %0
}

; Function Attrs: mustprogress uwtable
define void @_ZNK19OpenColorIO_v2_4dev20DisplayViewTransform8validateEv(ptr noundef nonnull align 8 dereferenceable(16) %this) unnamed_addr #0 align 2 personality ptr @__gxx_personality_v0 {
entry:
  %this.addr = alloca ptr, align 8
  %exn.slot = alloca ptr, align 8
  %ehselector.slot = alloca i32, align 4
  %ex = alloca ptr, align 8
  %errMsg = alloca %"class.std::__cxx11::basic_string", align 8
  %ref.tmp = alloca %"class.std::allocator", align 1
  store ptr %this, ptr %this.addr, align 8
  %this1 = load ptr, ptr %this.addr, align 8
  invoke void @_ZNK19OpenColorIO_v2_4dev9Transform8validateEv(ptr noundef nonnull align 8 dereferenceable(8) %this1)
          to label %invoke.cont unwind label %lpad

invoke.cont:                                      ; preds = %entry
  br label %try.cont

lpad:                                             ; preds = %entry
  %0 = landingpad { ptr, i32 }
          catch ptr @_ZTIN19OpenColorIO_v2_4dev9ExceptionE
  %1 = extractvalue { ptr, i32 } %0, 0
  store ptr %1, ptr %exn.slot, align 8
  %2 = extractvalue { ptr, i32 } %0, 1
  store i32 %2, ptr %ehselector.slot, align 4
  br label %catch.dispatch

catch.dispatch:                                   ; preds = %lpad
  %sel = load i32, ptr %ehselector.slot, align 4
  %3 = call i32 @llvm.eh.typeid.for(ptr @_ZTIN19OpenColorIO_v2_4dev9ExceptionE) #13
  %matches = icmp eq i32 %sel, %3
  br i1 %matches, label %catch, label %eh.resume

catch:                                            ; preds = %catch.dispatch
  %exn = load ptr, ptr %exn.slot, align 8
  %4 = call ptr @__cxa_begin_catch(ptr %exn) #13
  store ptr %4, ptr %ex, align 8
  call void @_ZNSaIcEC1Ev(ptr noundef nonnull align 1 dereferenceable(1) %ref.tmp) #13
  invoke void @_ZNSt7__cxx1112basic_stringIcSt11char_traitsIcESaIcEEC1EPKcRKS3_(ptr noundef nonnull align 8 dereferenceable(32) %errMsg, ptr noundef @.str, ptr noundef nonnull align 1 dereferenceable(1) %ref.tmp)
          to label %invoke.cont3 unwind label %lpad2

invoke.cont3:                                     ; preds = %catch
  call void @_ZNSaIcED1Ev(ptr noundef nonnull align 1 dereferenceable(1) %ref.tmp) #13
  %5 = load ptr, ptr %ex, align 8
  %vtable = load ptr, ptr %5, align 8
  %vfn = getelementptr inbounds ptr, ptr %vtable, i64 2
  %6 = load ptr, ptr %vfn, align 8
  %call = call noundef ptr %6(ptr noundef nonnull align 8 dereferenceable(16) %5) #13
  %call6 = invoke noundef nonnull align 8 dereferenceable(32) ptr @_ZNSt7__cxx1112basic_stringIcSt11char_traitsIcESaIcEEpLEPKc(ptr noundef nonnull align 8 dereferenceable(32) %errMsg, ptr noundef %call)
          to label %invoke.cont5 unwind label %lpad4

invoke.cont5:                                     ; preds = %invoke.cont3
  %exception = call ptr @__cxa_allocate_exception(i64 16) #13
  %call7 = call noundef ptr @_ZNKSt7__cxx1112basic_stringIcSt11char_traitsIcESaIcEE5c_strEv(ptr noundef nonnull align 8 dereferenceable(32) %errMsg) #13
  invoke void @_ZN19OpenColorIO_v2_4dev9ExceptionC1EPKc(ptr noundef nonnull align 8 dereferenceable(16) %exception, ptr noundef %call7)
          to label %invoke.cont9 unwind label %lpad8

invoke.cont9:                                     ; preds = %invoke.cont5
  invoke void @__cxa_throw(ptr %exception, ptr @_ZTIN19OpenColorIO_v2_4dev9ExceptionE, ptr @_ZN19OpenColorIO_v2_4dev9ExceptionD1Ev) #15
          to label %unreachable unwind label %lpad4

lpad2:                                            ; preds = %catch
  %7 = landingpad { ptr, i32 }
          cleanup
  %8 = extractvalue { ptr, i32 } %7, 0
  store ptr %8, ptr %exn.slot, align 8
  %9 = extractvalue { ptr, i32 } %7, 1
  store i32 %9, ptr %ehselector.slot, align 4
  call void @_ZNSaIcED1Ev(ptr noundef nonnull align 1 dereferenceable(1) %ref.tmp) #13
  br label %ehcleanup10

lpad4:                                            ; preds = %invoke.cont9, %invoke.cont3
  %10 = landingpad { ptr, i32 }
          cleanup
  %11 = extractvalue { ptr, i32 } %10, 0
  store ptr %11, ptr %exn.slot, align 8
  %12 = extractvalue { ptr, i32 } %10, 1
  store i32 %12, ptr %ehselector.slot, align 4
  br label %ehcleanup

lpad8:                                            ; preds = %invoke.cont5
  %13 = landingpad { ptr, i32 }
          cleanup
  %14 = extractvalue { ptr, i32 } %13, 0
  store ptr %14, ptr %exn.slot, align 8
  %15 = extractvalue { ptr, i32 } %13, 1
  store i32 %15, ptr %ehselector.slot, align 4
  call void @__cxa_free_exception(ptr %exception) #13
  br label %ehcleanup

ehcleanup:                                        ; preds = %lpad8, %lpad4
  call void @_ZNSt7__cxx1112basic_stringIcSt11char_traitsIcESaIcEED1Ev(ptr noundef nonnull align 8 dereferenceable(32) %errMsg) #13
  br label %ehcleanup10

ehcleanup10:                                      ; preds = %ehcleanup, %lpad2
  invoke void @__cxa_end_catch()
          to label %invoke.cont11 unwind label %terminate.lpad

invoke.cont11:                                    ; preds = %ehcleanup10
  br label %eh.resume

try.cont:                                         ; preds = %invoke.cont
  %call12 = call noundef ptr @_ZNK19OpenColorIO_v2_4dev20DisplayViewTransform7getImplEv(ptr noundef nonnull align 8 dereferenceable(16) %this1)
  %m_src = getelementptr inbounds %"class.OpenColorIO_v2_4dev::DisplayViewTransform::Impl", ptr %call12, i32 0, i32 2
  %call13 = call noundef zeroext i1 @_ZNKSt7__cxx1112basic_stringIcSt11char_traitsIcESaIcEE5emptyEv(ptr noundef nonnull align 8 dereferenceable(32) %m_src) #13
  br i1 %call13, label %if.then, label %if.end

if.then:                                          ; preds = %try.cont
  %exception14 = call ptr @__cxa_allocate_exception(i64 16) #13
  invoke void @_ZN19OpenColorIO_v2_4dev9ExceptionC1EPKc(ptr noundef nonnull align 8 dereferenceable(16) %exception14, ptr noundef @.str.1)
          to label %invoke.cont16 unwind label %lpad15

invoke.cont16:                                    ; preds = %if.then
  call void @__cxa_throw(ptr %exception14, ptr @_ZTIN19OpenColorIO_v2_4dev9ExceptionE, ptr @_ZN19OpenColorIO_v2_4dev9ExceptionD1Ev) #15
  unreachable

lpad15:                                           ; preds = %if.then
  %16 = landingpad { ptr, i32 }
          cleanup
  %17 = extractvalue { ptr, i32 } %16, 0
  store ptr %17, ptr %exn.slot, align 8
  %18 = extractvalue { ptr, i32 } %16, 1
  store i32 %18, ptr %ehselector.slot, align 4
  call void @__cxa_free_exception(ptr %exception14) #13
  br label %eh.resume

if.end:                                           ; preds = %try.cont
  %call18 = call noundef ptr @_ZNK19OpenColorIO_v2_4dev20DisplayViewTransform7getImplEv(ptr noundef nonnull align 8 dereferenceable(16) %this1)
  %m_display = getelementptr inbounds %"class.OpenColorIO_v2_4dev::DisplayViewTransform::Impl", ptr %call18, i32 0, i32 3
  %call19 = call noundef zeroext i1 @_ZNKSt7__cxx1112basic_stringIcSt11char_traitsIcESaIcEE5emptyEv(ptr noundef nonnull align 8 dereferenceable(32) %m_display) #13
  br i1 %call19, label %if.then20, label %if.end25

if.then20:                                        ; preds = %if.end
  %exception21 = call ptr @__cxa_allocate_exception(i64 16) #13
  invoke void @_ZN19OpenColorIO_v2_4dev9ExceptionC1EPKc(ptr noundef nonnull align 8 dereferenceable(16) %exception21, ptr noundef @.str.2)
          to label %invoke.cont23 unwind label %lpad22

invoke.cont23:                                    ; preds = %if.then20
  call void @__cxa_throw(ptr %exception21, ptr @_ZTIN19OpenColorIO_v2_4dev9ExceptionE, ptr @_ZN19OpenColorIO_v2_4dev9ExceptionD1Ev) #15
  unreachable

lpad22:                                           ; preds = %if.then20
  %19 = landingpad { ptr, i32 }
          cleanup
  %20 = extractvalue { ptr, i32 } %19, 0
  store ptr %20, ptr %exn.slot, align 8
  %21 = extractvalue { ptr, i32 } %19, 1
  store i32 %21, ptr %ehselector.slot, align 4
  call void @__cxa_free_exception(ptr %exception21) #13
  br label %eh.resume

if.end25:                                         ; preds = %if.end
  %call26 = call noundef ptr @_ZNK19OpenColorIO_v2_4dev20DisplayViewTransform7getImplEv(ptr noundef nonnull align 8 dereferenceable(16) %this1)
  %m_view = getelementptr inbounds %"class.OpenColorIO_v2_4dev::DisplayViewTransform::Impl", ptr %call26, i32 0, i32 4
  %call27 = call noundef zeroext i1 @_ZNKSt7__cxx1112basic_stringIcSt11char_traitsIcESaIcEE5emptyEv(ptr noundef nonnull align 8 dereferenceable(32) %m_view) #13
  br i1 %call27, label %if.then28, label %if.end33

if.then28:                                        ; preds = %if.end25
  %exception29 = call ptr @__cxa_allocate_exception(i64 16) #13
  invoke void @_ZN19OpenColorIO_v2_4dev9ExceptionC1EPKc(ptr noundef nonnull align 8 dereferenceable(16) %exception29, ptr noundef @.str.3)
          to label %invoke.cont31 unwind label %lpad30

invoke.cont31:                                    ; preds = %if.then28
  call void @__cxa_throw(ptr %exception29, ptr @_ZTIN19OpenColorIO_v2_4dev9ExceptionE, ptr @_ZN19OpenColorIO_v2_4dev9ExceptionD1Ev) #15
  unreachable

lpad30:                                           ; preds = %if.then28
  %22 = landingpad { ptr, i32 }
          cleanup
  %23 = extractvalue { ptr, i32 } %22, 0
  store ptr %23, ptr %exn.slot, align 8
  %24 = extractvalue { ptr, i32 } %22, 1
  store i32 %24, ptr %ehselector.slot, align 4
  call void @__cxa_free_exception(ptr %exception29) #13
  br label %eh.resume

if.end33:                                         ; preds = %if.end25
  ret void

eh.resume:                                        ; preds = %lpad30, %lpad22, %lpad15, %invoke.cont11, %catch.dispatch
  %exn34 = load ptr, ptr %exn.slot, align 8
  %sel35 = load i32, ptr %ehselector.slot, align 4
  %lpad.val = insertvalue { ptr, i32 } poison, ptr %exn34, 0
  %lpad.val36 = insertvalue { ptr, i32 } %lpad.val, i32 %sel35, 1
  resume { ptr, i32 } %lpad.val36

terminate.lpad:                                   ; preds = %ehcleanup10
  %25 = landingpad { ptr, i32 }
          catch ptr null
  %26 = extractvalue { ptr, i32 } %25, 0
  call void @__clang_call_terminate(ptr %26) #14
  unreachable

unreachable:                                      ; preds = %invoke.cont9
  unreachable
}