; Function Attrs: mustprogress uwtable
define void @_ZNK19OpenColorIO_v2_4dev20DisplayViewTransform8validateEv(ptr noundef nonnull align 8 dereferenceable(16) %this) unnamed_addr #0 align 2 personality ptr @__gxx_personality_v0 {
entry:
  %errMsg = alloca %"class.std::__cxx11::basic_string", align 8
  %ref.tmp = alloca %"class.std::allocator", align 1
  invoke void @_ZNK19OpenColorIO_v2_4dev9Transform8validateEv(ptr noundef nonnull align 8 dereferenceable(8) %this)
          to label %try.cont unwind label %lpad

lpad:                                             ; preds = %entry
  %0 = landingpad { ptr, i32 }
          catch ptr @_ZTIN19OpenColorIO_v2_4dev9ExceptionE
  %1 = extractvalue { ptr, i32 } %0, 1
  %2 = tail call i32 @llvm.eh.typeid.for(ptr nonnull @_ZTIN19OpenColorIO_v2_4dev9ExceptionE) #13
  %matches = icmp eq i32 %1, %2
  br i1 %matches, label %catch, label %eh.resume

catch:                                            ; preds = %lpad
  %3 = extractvalue { ptr, i32 } %0, 0
  %4 = tail call ptr @__cxa_begin_catch(ptr %3) #13
  call void @_ZNSaIcEC1Ev(ptr noundef nonnull align 1 dereferenceable(1) %ref.tmp) #13
  invoke void @_ZNSt7__cxx1112basic_stringIcSt11char_traitsIcESaIcEEC1EPKcRKS3_(ptr noundef nonnull align 8 dereferenceable(32) %errMsg, ptr noundef nonnull @.str, ptr noundef nonnull align 1 dereferenceable(1) %ref.tmp)
          to label %invoke.cont3 unwind label %lpad2

invoke.cont3:                                     ; preds = %catch
  call void @_ZNSaIcED1Ev(ptr noundef nonnull align 1 dereferenceable(1) %ref.tmp) #13
  %vtable = load ptr, ptr %4, align 8
  %vfn = getelementptr inbounds i8, ptr %vtable, i64 16
  %5 = load ptr, ptr %vfn, align 8
  %call = call noundef ptr %5(ptr noundef nonnull align 8 dereferenceable(16) %4) #13
  %call6 = invoke noundef nonnull align 8 dereferenceable(32) ptr @_ZNSt7__cxx1112basic_stringIcSt11char_traitsIcESaIcEEpLEPKc(ptr noundef nonnull align 8 dereferenceable(32) %errMsg, ptr noundef %call)
          to label %invoke.cont5 unwind label %lpad4

invoke.cont5:                                     ; preds = %invoke.cont3
  %exception = call ptr @__cxa_allocate_exception(i64 16) #13
  %call7 = call noundef ptr @_ZNKSt7__cxx1112basic_stringIcSt11char_traitsIcESaIcEE5c_strEv(ptr noundef nonnull align 8 dereferenceable(32) %errMsg) #13
  invoke void @_ZN19OpenColorIO_v2_4dev9ExceptionC1EPKc(ptr noundef nonnull align 8 dereferenceable(16) %exception, ptr noundef %call7)
          to label %invoke.cont9 unwind label %lpad8

invoke.cont9:                                     ; preds = %invoke.cont5
  invoke void @__cxa_throw(ptr nonnull %exception, ptr nonnull @_ZTIN19OpenColorIO_v2_4dev9ExceptionE, ptr nonnull @_ZN19OpenColorIO_v2_4dev9ExceptionD1Ev) #14
          to label %unreachable unwind label %lpad4

lpad2:                                            ; preds = %catch
  %6 = landingpad { ptr, i32 }
          cleanup
  call void @_ZNSaIcED1Ev(ptr noundef nonnull align 1 dereferenceable(1) %ref.tmp) #13
  br label %ehcleanup10

lpad4:                                            ; preds = %invoke.cont9, %invoke.cont3
  %7 = landingpad { ptr, i32 }
          cleanup
  br label %ehcleanup

lpad8:                                            ; preds = %invoke.cont5
  %8 = landingpad { ptr, i32 }
          cleanup
  call void @__cxa_free_exception(ptr %exception) #13
  br label %ehcleanup

ehcleanup:                                        ; preds = %lpad8, %lpad4
  %.pn = phi { ptr, i32 } [ %7, %lpad4 ], [ %8, %lpad8 ]
  call void @_ZNSt7__cxx1112basic_stringIcSt11char_traitsIcESaIcEED1Ev(ptr noundef nonnull align 8 dereferenceable(32) %errMsg) #13
  br label %ehcleanup10

ehcleanup10:                                      ; preds = %ehcleanup, %lpad2
  %.pn.pn = phi { ptr, i32 } [ %.pn, %ehcleanup ], [ %6, %lpad2 ]
  invoke void @__cxa_end_catch()
          to label %eh.resume unwind label %terminate.lpad

try.cont:                                         ; preds = %entry
  %m_impl.i = getelementptr inbounds i8, ptr %this, i64 8
  %9 = load ptr, ptr %m_impl.i, align 8
  %m_src = getelementptr inbounds i8, ptr %9, i64 8
  %call13 = tail call noundef zeroext i1 @_ZNKSt7__cxx1112basic_stringIcSt11char_traitsIcESaIcEE5emptyEv(ptr noundef nonnull align 8 dereferenceable(32) %m_src) #13
  br i1 %call13, label %if.then, label %if.end

if.then:                                          ; preds = %try.cont
  %exception14 = tail call ptr @__cxa_allocate_exception(i64 16) #13
  invoke void @_ZN19OpenColorIO_v2_4dev9ExceptionC1EPKc(ptr noundef nonnull align 8 dereferenceable(16) %exception14, ptr noundef nonnull @.str.1)
          to label %invoke.cont16 unwind label %lpad15

invoke.cont16:                                    ; preds = %if.then
  tail call void @__cxa_throw(ptr nonnull %exception14, ptr nonnull @_ZTIN19OpenColorIO_v2_4dev9ExceptionE, ptr nonnull @_ZN19OpenColorIO_v2_4dev9ExceptionD1Ev) #14
  unreachable

lpad15:                                           ; preds = %if.then
  %10 = landingpad { ptr, i32 }
          cleanup
  br label %eh.resume.sink.split

if.end:                                           ; preds = %try.cont
  %11 = load ptr, ptr %m_impl.i, align 8
  %m_display = getelementptr inbounds i8, ptr %11, i64 40
  %call19 = tail call noundef zeroext i1 @_ZNKSt7__cxx1112basic_stringIcSt11char_traitsIcESaIcEE5emptyEv(ptr noundef nonnull align 8 dereferenceable(32) %m_display) #13
  br i1 %call19, label %if.then20, label %if.end25

if.then20:                                        ; preds = %if.end
  %exception21 = tail call ptr @__cxa_allocate_exception(i64 16) #13
  invoke void @_ZN19OpenColorIO_v2_4dev9ExceptionC1EPKc(ptr noundef nonnull align 8 dereferenceable(16) %exception21, ptr noundef nonnull @.str.2)
          to label %invoke.cont23 unwind label %lpad22

invoke.cont23:                                    ; preds = %if.then20
  tail call void @__cxa_throw(ptr nonnull %exception21, ptr nonnull @_ZTIN19OpenColorIO_v2_4dev9ExceptionE, ptr nonnull @_ZN19OpenColorIO_v2_4dev9ExceptionD1Ev) #14
  unreachable

lpad22:                                           ; preds = %if.then20
  %12 = landingpad { ptr, i32 }
          cleanup
  br label %eh.resume.sink.split

if.end25:                                         ; preds = %if.end
  %13 = load ptr, ptr %m_impl.i, align 8
  %m_view = getelementptr inbounds i8, ptr %13, i64 72
  %call27 = tail call noundef zeroext i1 @_ZNKSt7__cxx1112basic_stringIcSt11char_traitsIcESaIcEE5emptyEv(ptr noundef nonnull align 8 dereferenceable(32) %m_view) #13
  br i1 %call27, label %if.then28, label %if.end33

if.then28:                                        ; preds = %if.end25
  %exception29 = tail call ptr @__cxa_allocate_exception(i64 16) #13
  invoke void @_ZN19OpenColorIO_v2_4dev9ExceptionC1EPKc(ptr noundef nonnull align 8 dereferenceable(16) %exception29, ptr noundef nonnull @.str.3)
          to label %invoke.cont31 unwind label %lpad30

invoke.cont31:                                    ; preds = %if.then28
  tail call void @__cxa_throw(ptr nonnull %exception29, ptr nonnull @_ZTIN19OpenColorIO_v2_4dev9ExceptionE, ptr nonnull @_ZN19OpenColorIO_v2_4dev9ExceptionD1Ev) #14
  unreachable

lpad30:                                           ; preds = %if.then28
  %14 = landingpad { ptr, i32 }
          cleanup
  br label %eh.resume.sink.split

if.end33:                                         ; preds = %if.end25
  ret void

eh.resume.sink.split:                             ; preds = %lpad15, %lpad22, %lpad30
  %exception29.sink = phi ptr [ %exception29, %lpad30 ], [ %exception21, %lpad22 ], [ %exception14, %lpad15 ]
  %lpad.val36.merged.ph = phi { ptr, i32 } [ %14, %lpad30 ], [ %12, %lpad22 ], [ %10, %lpad15 ]
  tail call void @__cxa_free_exception(ptr %exception29.sink) #13
  br label %eh.resume

eh.resume:                                        ; preds = %eh.resume.sink.split, %ehcleanup10, %lpad
  %lpad.val36.merged = phi { ptr, i32 } [ %.pn.pn, %ehcleanup10 ], [ %0, %lpad ], [ %lpad.val36.merged.ph, %eh.resume.sink.split ]
  resume { ptr, i32 } %lpad.val36.merged

terminate.lpad:                                   ; preds = %ehcleanup10
  %15 = landingpad { ptr, i32 }
          catch ptr null
  %16 = extractvalue { ptr, i32 } %15, 0
  call void @__clang_call_terminate(ptr %16) #15
  unreachable

unreachable:                                      ; preds = %invoke.cont9
  unreachable
}